target datalayout = "e-m:e-p270:32:32-p271:32:32-p272:64:64-i64:64-i128:128-f80:128-n8:16:32:64-S128"
target triple = "x86_64-pc-linux-gnu"

%struct.H5PB_t = type { i64, i64, i32, i32, i32, i32, i32, i32, ptr, ptr, i64, ptr, ptr, ptr, [2 x i32], [2 x i32], [2 x i32], [2 x i32], [2 x i32] }
%struct.H5PB_entry_t = type { ptr, i64, i32, i8, ptr, ptr }

@H5PB_init_g = global i8 0, align 1
@H5_libterm_g = external global i8, align 1

; Function Attrs: nounwind uwtable
define i32 @H5PB_update_entry(ptr noundef %0, i64 noundef %1, i64 noundef %2, ptr noundef %3) #0 {
  %5 = alloca ptr, align 8
  %6 = alloca i64, align 8
  %7 = alloca i64, align 8
  %8 = alloca ptr, align 8
  %9 = alloca ptr, align 8
  %10 = alloca i64, align 8
  %11 = alloca i64, align 8
  store ptr %0, ptr %5, align 8, !tbaa !3
  store i64 %1, ptr %6, align 8, !tbaa !18
  store i64 %2, ptr %7, align 8, !tbaa !18
  store ptr %3, ptr %8, align 8, !tbaa !55
  call void @llvm.lifetime.start.p0(i64 8, ptr %9) #6
  call void @llvm.lifetime.start.p0(i64 8, ptr %10) #6
  %12 = load i8, ptr @H5PB_init_g, align 1, !tbaa !8, !range !10, !noundef !11
  %13 = trunc i8 %12 to i1
  br i1 %13, label %18, label %14

14:                                               ; preds = %4
  %15 = load i8, ptr @H5_libterm_g, align 1, !tbaa !8, !range !10, !noundef !11
  %16 = trunc i8 %15 to i1
  %17 = xor i1 %16, true
  br label %18

18:                                               ; preds = %14, %4
  %19 = phi i1 [ false, %4 ], [ %17, %14 ]
  %20 = xor i1 %19, true
  %21 = xor i1 %20, true
  %22 = zext i1 %21 to i32
  %23 = sext i32 %22 to i64
  %24 = call i64 @llvm.expect.i64(i64 %23, i64 0)
  %25 = icmp ne i64 %24, 0
  br i1 %25, label %26, label %27

26:                                               ; preds = %18
  store i8 1, ptr @H5PB_init_g, align 1, !tbaa !8
  br label %27

27:                                               ; preds = %26, %18
  %28 = load i8, ptr @H5PB_init_g, align 1, !tbaa !8, !range !10, !noundef !11
  %29 = trunc i8 %28 to i1
  br i1 %29, label %34, label %30

30:                                               ; preds = %27
  %31 = load i8, ptr @H5_libterm_g, align 1, !tbaa !8, !range !10, !noundef !11
  %32 = trunc i8 %31 to i1
  %33 = xor i1 %32, true
  br label %34

34:                                               ; preds = %30, %27
  %35 = phi i1 [ true, %27 ], [ %33, %30 ]
  %36 = xor i1 %35, true
  %37 = xor i1 %36, true
  %38 = zext i1 %37 to i32
  %39 = sext i32 %38 to i64
  %40 = call i64 @llvm.expect.i64(i64 %39, i64 1)
  %41 = icmp ne i64 %40, 0
  br i1 %41, label %42, label %168

42:                                               ; preds = %34
  %43 = load i64, ptr %6, align 8, !tbaa !18
  %44 = load ptr, ptr %5, align 8, !tbaa !3
  %45 = getelementptr inbounds nuw %struct.H5PB_t, ptr %44, i32 0, i32 1
  %46 = load i64, ptr %45, align 8, !tbaa !46
  %47 = udiv i64 %43, %46
  %48 = load ptr, ptr %5, align 8, !tbaa !3
  %49 = getelementptr inbounds nuw %struct.H5PB_t, ptr %48, i32 0, i32 1
  %50 = load i64, ptr %49, align 8, !tbaa !46
  %51 = mul i64 %47, %50
  store i64 %51, ptr %10, align 8, !tbaa !18
  %52 = load ptr, ptr %5, align 8, !tbaa !3
  %53 = getelementptr inbounds nuw %struct.H5PB_t, ptr %52, i32 0, i32 8
  %54 = load ptr, ptr %53, align 8, !tbaa !51
  %55 = call ptr @H5SL_search(ptr noundef %54, ptr noundef %10)
  store ptr %55, ptr %9, align 8, !tbaa !56
  %56 = load ptr, ptr %9, align 8, !tbaa !56
  %57 = icmp ne ptr %56, null
  br i1 %57, label %58, label %167

58:                                               ; preds = %42
  call void @llvm.lifetime.start.p0(i64 8, ptr %11) #6
  %59 = load i64, ptr %6, align 8, !tbaa !18
  %60 = load i64, ptr %10, align 8, !tbaa !18
  %61 = sub i64 %59, %60
  store i64 %61, ptr %11, align 8, !tbaa !18
  %62 = load ptr, ptr %9, align 8, !tbaa !56
  %63 = getelementptr inbounds nuw %struct.H5PB_entry_t, ptr %62, i32 0, i32 0
  %64 = load ptr, ptr %63, align 8, !tbaa !67
  %65 = load i64, ptr %11, align 8, !tbaa !18
  %66 = getelementptr inbounds nuw i8, ptr %64, i64 %65
  %67 = load ptr, ptr %8, align 8, !tbaa !55
  %68 = load i64, ptr %7, align 8, !tbaa !18
  call void @llvm.memcpy.p0.p0.i64(ptr align 1 %66, ptr align 1 %67, i64 %68, i1 false)
  %69 = load ptr, ptr %5, align 8, !tbaa !3
  %70 = getelementptr inbounds nuw %struct.H5PB_t, ptr %69, i32 0, i32 11
  %71 = load ptr, ptr %70, align 8, !tbaa !62
  %72 = load ptr, ptr %9, align 8, !tbaa !56
  %73 = icmp eq ptr %71, %72
  br i1 %73, label %74, label %90

74:                                               ; preds = %58
  %75 = load ptr, ptr %9, align 8, !tbaa !56
  %76 = getelementptr inbounds nuw %struct.H5PB_entry_t, ptr %75, i32 0, i32 4
  %77 = load ptr, ptr %76, align 8, !tbaa !63
  %78 = load ptr, ptr %5, align 8, !tbaa !3
  %79 = getelementptr inbounds nuw %struct.H5PB_t, ptr %78, i32 0, i32 11
  store ptr %77, ptr %79, align 8, !tbaa !62
  %80 = load ptr, ptr %5, align 8, !tbaa !3
  %81 = getelementptr inbounds nuw %struct.H5PB_t, ptr %80, i32 0, i32 11
  %82 = load ptr, ptr %81, align 8, !tbaa !62
  %83 = icmp ne ptr %82, null
  br i1 %83, label %84, label %89

84:                                               ; preds = %74
  %85 = load ptr, ptr %5, align 8, !tbaa !3
  %86 = getelementptr inbounds nuw %struct.H5PB_t, ptr %85, i32 0, i32 11
  %87 = load ptr, ptr %86, align 8, !tbaa !62
  %88 = getelementptr inbounds nuw %struct.H5PB_entry_t, ptr %87, i32 0, i32 5
  store ptr null, ptr %88, align 8, !tbaa !64
  br label %89

89:                                               ; preds = %84, %74
  br label %98

90:                                               ; preds = %58
  %91 = load ptr, ptr %9, align 8, !tbaa !56
  %92 = getelementptr inbounds nuw %struct.H5PB_entry_t, ptr %91, i32 0, i32 4
  %93 = load ptr, ptr %92, align 8, !tbaa !63
  %94 = load ptr, ptr %9, align 8, !tbaa !56
  %95 = getelementptr inbounds nuw %struct.H5PB_entry_t, ptr %94, i32 0, i32 5
  %96 = load ptr, ptr %95, align 8, !tbaa !64
  %97 = getelementptr inbounds nuw %struct.H5PB_entry_t, ptr %96, i32 0, i32 4
  store ptr %93, ptr %97, align 8, !tbaa !63
  br label %98

98:                                               ; preds = %90, %89
  %99 = load ptr, ptr %5, align 8, !tbaa !3
  %100 = getelementptr inbounds nuw %struct.H5PB_t, ptr %99, i32 0, i32 12
  %101 = load ptr, ptr %100, align 8, !tbaa !65
  %102 = load ptr, ptr %9, align 8, !tbaa !56
  %103 = icmp eq ptr %101, %102
  br i1 %103, label %104, label %120

104:                                              ; preds = %98
  %105 = load ptr, ptr %9, align 8, !tbaa !56
  %106 = getelementptr inbounds nuw %struct.H5PB_entry_t, ptr %105, i32 0, i32 5
  %107 = load ptr, ptr %106, align 8, !tbaa !64
  %108 = load ptr, ptr %5, align 8, !tbaa !3
  %109 = getelementptr inbounds nuw %struct.H5PB_t, ptr %108, i32 0, i32 12
  store ptr %107, ptr %109, align 8, !tbaa !65
  %110 = load ptr, ptr %5, align 8, !tbaa !3
  %111 = getelementptr inbounds nuw %struct.H5PB_t, ptr %110, i32 0, i32 12
  %112 = load ptr, ptr %111, align 8, !tbaa !65
  %113 = icmp ne ptr %112, null
  br i1 %113, label %114, label %119

114:                                              ; preds = %104
  %115 = load ptr, ptr %5, align 8, !tbaa !3
  %116 = getelementptr inbounds nuw %struct.H5PB_t, ptr %115, i32 0, i32 12
  %117 = load ptr, ptr %116, align 8, !tbaa !65
  %118 = getelementptr inbounds nuw %struct.H5PB_entry_t, ptr %117, i32 0, i32 4
  store ptr null, ptr %118, align 8, !tbaa !63
  br label %119

119:                                              ; preds = %114, %104
  br label %128

120:                                              ; preds = %98
  %121 = load ptr, ptr %9, align 8, !tbaa !56
  %122 = getelementptr inbounds nuw %struct.H5PB_entry_t, ptr %121, i32 0, i32 5
  %123 = load ptr, ptr %122, align 8, !tbaa !64
  %124 = load ptr, ptr %9, align 8, !tbaa !56
  %125 = getelementptr inbounds nuw %struct.H5PB_entry_t, ptr %124, i32 0, i32 4
  %126 = load ptr, ptr %125, align 8, !tbaa !63
  %127 = getelementptr inbounds nuw %struct.H5PB_entry_t, ptr %126, i32 0, i32 5
  store ptr %123, ptr %127, align 8, !tbaa !64
  br label %128

128:                                              ; preds = %120, %119
  %129 = load ptr, ptr %9, align 8, !tbaa !56
  %130 = getelementptr inbounds nuw %struct.H5PB_entry_t, ptr %129, i32 0, i32 4
  store ptr null, ptr %130, align 8, !tbaa !63
  %131 = load ptr, ptr %9, align 8, !tbaa !56
  %132 = getelementptr inbounds nuw %struct.H5PB_entry_t, ptr %131, i32 0, i32 5
  store ptr null, ptr %132, align 8, !tbaa !64
  %133 = load ptr, ptr %5, align 8, !tbaa !3
  %134 = getelementptr inbounds nuw %struct.H5PB_t, ptr %133, i32 0, i32 10
  %135 = load i64, ptr %134, align 8, !tbaa !66
  %136 = add i64 %135, -1
  store i64 %136, ptr %134, align 8, !tbaa !66
  %137 = load ptr, ptr %5, align 8, !tbaa !3
  %138 = getelementptr inbounds nuw %struct.H5PB_t, ptr %137, i32 0, i32 11
  %139 = load ptr, ptr %138, align 8, !tbaa !62
  %140 = icmp eq ptr %139, null
  br i1 %140, label %141, label %148

141:                                              ; preds = %128
  %142 = load ptr, ptr %9, align 8, !tbaa !56
  %143 = load ptr, ptr %5, align 8, !tbaa !3
  %144 = getelementptr inbounds nuw %struct.H5PB_t, ptr %143, i32 0, i32 11
  store ptr %142, ptr %144, align 8, !tbaa !62
  %145 = load ptr, ptr %9, align 8, !tbaa !56
  %146 = load ptr, ptr %5, align 8, !tbaa !3
  %147 = getelementptr inbounds nuw %struct.H5PB_t, ptr %146, i32 0, i32 12
  store ptr %145, ptr %147, align 8, !tbaa !65
  br label %162

148:                                              ; preds = %128
  %149 = load ptr, ptr %9, align 8, !tbaa !56
  %150 = load ptr, ptr %5, align 8, !tbaa !3
  %151 = getelementptr inbounds nuw %struct.H5PB_t, ptr %150, i32 0, i32 11
  %152 = load ptr, ptr %151, align 8, !tbaa !62
  %153 = getelementptr inbounds nuw %struct.H5PB_entry_t, ptr %152, i32 0, i32 5
  store ptr %149, ptr %153, align 8, !tbaa !64
  %154 = load ptr, ptr %5, align 8, !tbaa !3
  %155 = getelementptr inbounds nuw %struct.H5PB_t, ptr %154, i32 0, i32 11
  %156 = load ptr, ptr %155, align 8, !tbaa !62
  %157 = load ptr, ptr %9, align 8, !tbaa !56
  %158 = getelementptr inbounds nuw %struct.H5PB_entry_t, ptr %157, i32 0, i32 4
  store ptr %156, ptr %158, align 8, !tbaa !63
  %159 = load ptr, ptr %9, align 8, !tbaa !56
  %160 = load ptr, ptr %5, align 8, !tbaa !3
  %161 = getelementptr inbounds nuw %struct.H5PB_t, ptr %160, i32 0, i32 11
  store ptr %159, ptr %161, align 8, !tbaa !62
  br label %162

162:                                              ; preds = %148, %141
  %163 = load ptr, ptr %5, align 8, !tbaa !3
  %164 = getelementptr inbounds nuw %struct.H5PB_t, ptr %163, i32 0, i32 10
  %165 = load i64, ptr %164, align 8, !tbaa !66
  %166 = add i64 %165, 1
  store i64 %166, ptr %164, align 8, !tbaa !66
  call void @llvm.lifetime.end.p0(i64 8, ptr %11) #6
  br label %167

167:                                              ; preds = %162, %42
  br label %168

168:                                              ; preds = %167, %34
  call void @llvm.lifetime.end.p0(i64 8, ptr %10) #6
  call void @llvm.lifetime.end.p0(i64 8, ptr %9) #6
  ret i32 0
}