; Function Attrs: nounwind uwtable
define noundef i32 @H5PB_update_entry(ptr noundef captures(none) %0, i64 noundef %1, i64 noundef %2, ptr noundef readonly captures(none) %3) local_unnamed_addr #4 {
  %5 = alloca i64, align 8
  call void @llvm.lifetime.start.p0(i64 8, ptr nonnull %5) #10
  %6 = load i8, ptr @H5PB_init_g, align 1, !tbaa !3, !range !7, !noundef !8
  %7 = trunc nuw i8 %6 to i1
  %8 = load i8, ptr @H5_libterm_g, align 1, !range !7
  %9 = trunc nuw i8 %8 to i1
  %10 = select i1 %7, i1 true, i1 %9
  br i1 %10, label %11, label %.thread, !prof !9

.thread:                                          ; preds = %4
  store i8 1, ptr @H5PB_init_g, align 1, !tbaa !3
  br label %14

11:                                               ; preds = %4
  %12 = xor i1 %9, true
  %13 = select i1 %7, i1 true, i1 %12
  br i1 %13, label %14, label %59, !prof !10

14:                                               ; preds = %.thread, %11
  %15 = getelementptr inbounds nuw i8, ptr %0, i64 8
  %16 = load i64, ptr %15, align 8, !tbaa !43
  %17 = urem i64 %1, %16
  %18 = sub nuw i64 %1, %17
  store i64 %18, ptr %5, align 8, !tbaa !37
  %19 = getelementptr inbounds nuw i8, ptr %0, i64 40
  %20 = load ptr, ptr %19, align 8, !tbaa !48
  %21 = call ptr @H5SL_search(ptr noundef %20, ptr noundef nonnull %5) #10
  %.not = icmp eq ptr %21, null
  br i1 %.not, label %59, label %22

22:                                               ; preds = %14
  %23 = load i64, ptr %5, align 8, !tbaa !37
  %24 = sub i64 %1, %23
  %25 = load ptr, ptr %21, align 8, !tbaa !62
  %26 = getelementptr inbounds nuw i8, ptr %25, i64 %24
  call void @llvm.memcpy.p0.p0.i64(ptr align 1 %26, ptr align 1 %3, i64 %2, i1 false)
  %27 = getelementptr inbounds nuw i8, ptr %0, i64 64
  %28 = load ptr, ptr %27, align 8, !tbaa !57
  %29 = icmp eq ptr %28, %21
  %30 = getelementptr inbounds nuw i8, ptr %21, i64 24
  %31 = load ptr, ptr %30, align 8, !tbaa !58
  br i1 %29, label %32, label %35

32:                                               ; preds = %22
  %.not43 = icmp eq ptr %31, null
  br i1 %.not43, label %39, label %33

33:                                               ; preds = %32
  %34 = getelementptr inbounds nuw i8, ptr %31, i64 32
  store ptr null, ptr %34, align 8, !tbaa !59
  br label %39

35:                                               ; preds = %22
  %36 = getelementptr inbounds nuw i8, ptr %21, i64 32
  %37 = load ptr, ptr %36, align 8, !tbaa !59
  %38 = getelementptr inbounds nuw i8, ptr %37, i64 24
  store ptr %31, ptr %38, align 8, !tbaa !58
  br label %39

39:                                               ; preds = %32, %33, %35
  %40 = phi ptr [ null, %32 ], [ %31, %33 ], [ %28, %35 ]
  %41 = phi ptr [ null, %32 ], [ %31, %33 ], [ %31, %35 ]
  %42 = getelementptr inbounds nuw i8, ptr %0, i64 72
  %43 = load ptr, ptr %42, align 8, !tbaa !60
  %44 = icmp eq ptr %43, %21
  %45 = getelementptr inbounds nuw i8, ptr %21, i64 32
  %46 = load ptr, ptr %45, align 8, !tbaa !59
  br i1 %44, label %47, label %50

47:                                               ; preds = %39
  store ptr %46, ptr %42, align 8, !tbaa !60
  %.not44 = icmp eq ptr %46, null
  br i1 %.not44, label %52, label %48

48:                                               ; preds = %47
  %49 = getelementptr inbounds nuw i8, ptr %46, i64 24
  store ptr null, ptr %49, align 8, !tbaa !58
  br label %52

50:                                               ; preds = %39
  %51 = getelementptr inbounds nuw i8, ptr %41, i64 32
  store ptr %46, ptr %51, align 8, !tbaa !59
  br label %52

52:                                               ; preds = %47, %48, %50
  %53 = getelementptr inbounds nuw i8, ptr %21, i64 24
  call void @llvm.memset.p0.i64(ptr noundef nonnull align 8 dereferenceable(16) %53, i8 0, i64 16, i1 false)
  %54 = icmp eq ptr %40, null
  br i1 %54, label %55, label %56

55:                                               ; preds = %52
  store ptr %21, ptr %42, align 8, !tbaa !60
  br label %58

56:                                               ; preds = %52
  %57 = getelementptr inbounds nuw i8, ptr %40, i64 32
  store ptr %21, ptr %57, align 8, !tbaa !59
  store ptr %40, ptr %53, align 8, !tbaa !58
  br label %58

58:                                               ; preds = %56, %55
  store ptr %21, ptr %27, align 8, !tbaa !57
  br label %59

59:                                               ; preds = %14, %58, %11
  call void @llvm.lifetime.end.p0(i64 8, ptr nonnull %5) #10
  ret i32 0
}